target datalayout = "e-m:e-p270:32:32-p271:32:32-p272:64:64-i64:64-i128:128-f80:128-n8:16:32:64-S128"
target triple = "x86_64-unknown-linux-gnu"

%struct.QpfEntry = type { i64, i64, i64 }

; Function Attrs: nounwind sspstrong uwtable
define internal zeroext i1 @qpf_cmp_func(ptr noundef %obj, ptr noundef %userp) #0 {
entry:
  %obj.addr = alloca ptr, align 8
  %userp.addr = alloca ptr, align 8
  %e1 = alloca ptr, align 8
  %e2 = alloca ptr, align 8
  store ptr %obj, ptr %obj.addr, align 8
  store ptr %userp, ptr %userp.addr, align 8
  %0 = load ptr, ptr %obj.addr, align 8
  store ptr %0, ptr %e1, align 8
  %1 = load ptr, ptr %userp.addr, align 8
  store ptr %1, ptr %e2, align 8
  %2 = load ptr, ptr %e1, align 8
  %dev = getelementptr inbounds %struct.QpfEntry, ptr %2, i32 0, i32 0
  %3 = load i64, ptr %dev, align 8
  %4 = load ptr, ptr %e2, align 8
  %dev1 = getelementptr inbounds %struct.QpfEntry, ptr %4, i32 0, i32 0
  %5 = load i64, ptr %dev1, align 8
  %cmp = icmp eq i64 %3, %5
  br i1 %cmp, label %land.rhs, label %land.end

land.rhs:                                         ; preds = %entry
  %6 = load ptr, ptr %e1, align 8
  %ino = getelementptr inbounds %struct.QpfEntry, ptr %6, i32 0, i32 1
  %7 = load i64, ptr %ino, align 8
  %8 = load ptr, ptr %e2, align 8
  %ino2 = getelementptr inbounds %struct.QpfEntry, ptr %8, i32 0, i32 1
  %9 = load i64, ptr %ino2, align 8
  %cmp3 = icmp eq i64 %7, %9
  br label %land.end

land.end:                                         ; preds = %land.rhs, %entry
  %10 = phi i1 [ false, %entry ], [ %cmp3, %land.rhs ]
  ret i1 %10
}