; Function Attrs: mustprogress nofree norecurse nosync nounwind sspstrong willreturn memory(argmem: read) uwtable
define internal zeroext i1 @qpf_cmp_func(ptr noundef readonly captures(none) %obj, ptr noundef readonly captures(none) %userp) #9 {
entry:
  %0 = load i64, ptr %obj, align 8
  %1 = load i64, ptr %userp, align 8
  %cmp = icmp eq i64 %0, %1
  br i1 %cmp, label %land.rhs, label %land.end

land.rhs:                                         ; preds = %entry
  %ino = getelementptr inbounds nuw i8, ptr %obj, i64 8
  %2 = load i64, ptr %ino, align 8
  %ino2 = getelementptr inbounds nuw i8, ptr %userp, i64 8
  %3 = load i64, ptr %ino2, align 8
  %cmp3 = icmp eq i64 %2, %3
  br label %land.end

land.end:                                         ; preds = %land.rhs, %entry
  %4 = phi i1 [ false, %entry ], [ %cmp3, %land.rhs ]
  ret i1 %4
}